target datalayout = "e-m:e-p270:32:32-p271:32:32-p272:64:64-i64:64-i128:128-f80:128-n8:16:32:64-S128"
target triple = "x86_64-pc-linux-gnu"

%struct.t_atom = type { float, float, float, float, i16, i16, i32, i32, i32, [4 x i8] }

; Function Attrs: inlinehint mustprogress nounwind uwtable
define linkonce_odr noundef float @_ZSt4sqrtf(float noundef %0) #3 comdat {
  %2 = alloca float, align 4
  store float %0, ptr %2, align 4, !tbaa !11
  %3 = load float, ptr %2, align 4, !tbaa !11
  %4 = call float @sqrtf(float noundef %3) #14, !tbaa !4
  ret float %4
}

; Function Attrs: inlinehint mustprogress nounwind uwtable
define internal noundef float @_ZL5iprodPKfS0_(ptr noundef %0, ptr noundef %1) #3 {
  %3 = alloca ptr, align 8
  %4 = alloca ptr, align 8
  store ptr %0, ptr %3, align 8, !tbaa !28
  store ptr %1, ptr %4, align 8, !tbaa !28
  %5 = load ptr, ptr %3, align 8, !tbaa !28
  %6 = getelementptr inbounds float, ptr %5, i64 0
  %7 = load float, ptr %6, align 4, !tbaa !11
  %8 = load ptr, ptr %4, align 8, !tbaa !28
  %9 = getelementptr inbounds float, ptr %8, i64 0
  %10 = load float, ptr %9, align 4, !tbaa !11
  %11 = load ptr, ptr %3, align 8, !tbaa !28
  %12 = getelementptr inbounds float, ptr %11, i64 1
  %13 = load float, ptr %12, align 4, !tbaa !11
  %14 = load ptr, ptr %4, align 8, !tbaa !28
  %15 = getelementptr inbounds float, ptr %14, i64 1
  %16 = load float, ptr %15, align 4, !tbaa !11
  %17 = fmul float %13, %16
  %18 = call float @llvm.fmuladd.f32(float %7, float %10, float %17)
  %19 = load ptr, ptr %3, align 8, !tbaa !28
  %20 = getelementptr inbounds float, ptr %19, i64 2
  %21 = load float, ptr %20, align 4, !tbaa !11
  %22 = load ptr, ptr %4, align 8, !tbaa !28
  %23 = getelementptr inbounds float, ptr %22, i64 2
  %24 = load float, ptr %23, align 4, !tbaa !11
  %25 = call float @llvm.fmuladd.f32(float %21, float %24, float %18)
  ret float %25
}

; Function Attrs: mustprogress nounwind uwtable
define linkonce_odr noundef float @_Zli5_reale(x86_fp80 noundef %0) #2 comdat {
  %2 = alloca x86_fp80, align 16
  store x86_fp80 %0, ptr %2, align 16, !tbaa !43
  %3 = load x86_fp80, ptr %2, align 16, !tbaa !43
  %4 = fptrunc x86_fp80 %3 to float
  ret float %4
}

; Function Attrs: inlinehint mustprogress uwtable
define internal noundef float @_ZL4normPKf(ptr noundef %0) #4 {
  %2 = alloca ptr, align 8
  store ptr %0, ptr %2, align 8, !tbaa !28
  %3 = load ptr, ptr %2, align 8, !tbaa !28
  %4 = load ptr, ptr %2, align 8, !tbaa !28
  %5 = call noundef float @_ZL5iprodPKfS0_(ptr noundef %3, ptr noundef %4)
  %6 = call noundef float @_ZSt4sqrtf(float noundef %5)
  ret float %6
}

; Function Attrs: inlinehint mustprogress uwtable
define internal void @_ZL10clear_rvecPf(ptr noundef %0) #4 {
  %2 = alloca ptr, align 8
  store ptr %0, ptr %2, align 8, !tbaa !28
  %3 = call noundef float @_Zli5_reale(x86_fp80 noundef 0xK00000000000000000000)
  %4 = load ptr, ptr %2, align 8, !tbaa !28
  %5 = getelementptr inbounds float, ptr %4, i64 0
  store float %3, ptr %5, align 4, !tbaa !11
  %6 = call noundef float @_Zli5_reale(x86_fp80 noundef 0xK00000000000000000000)
  %7 = load ptr, ptr %2, align 8, !tbaa !28
  %8 = getelementptr inbounds float, ptr %7, i64 1
  store float %6, ptr %8, align 4, !tbaa !11
  %9 = call noundef float @_Zli5_reale(x86_fp80 noundef 0xK00000000000000000000)
  %10 = load ptr, ptr %2, align 8, !tbaa !28
  %11 = getelementptr inbounds float, ptr %10, i64 2
  store float %9, ptr %11, align 4, !tbaa !11
  ret void
}

; Function Attrs: mustprogress uwtable
define noundef float @_Z3dipiPKiPA3_KfPK6t_atom(i32 noundef %0, ptr noundef %1, ptr noundef %2, ptr noundef %3) #0 {
  %5 = alloca i32, align 4
  %6 = alloca ptr, align 8
  %7 = alloca ptr, align 8
  %8 = alloca ptr, align 8
  %9 = alloca i32, align 4
  %10 = alloca i32, align 4
  %11 = alloca i32, align 4
  %12 = alloca [3 x float], align 4
  %13 = alloca float, align 4
  store i32 %0, ptr %5, align 4, !tbaa !4
  store ptr %1, ptr %6, align 8, !tbaa !26
  store ptr %2, ptr %7, align 8, !tbaa !28
  store ptr %3, ptr %8, align 8, !tbaa !35
  call void @llvm.lifetime.start.p0(i64 4, ptr %9) #14
  call void @llvm.lifetime.start.p0(i64 4, ptr %10) #14
  call void @llvm.lifetime.start.p0(i64 4, ptr %11) #14
  call void @llvm.lifetime.start.p0(i64 12, ptr %12) #14
  call void @llvm.lifetime.start.p0(i64 4, ptr %13) #14
  %14 = getelementptr inbounds [3 x float], ptr %12, i64 0, i64 0
  call void @_ZL10clear_rvecPf(ptr noundef %14)
  store i32 0, ptr %9, align 4, !tbaa !4
  br label %15

15:                                               ; preds = %53, %4
  %16 = load i32, ptr %9, align 4, !tbaa !4
  %17 = load i32, ptr %5, align 4, !tbaa !4
  %18 = icmp slt i32 %16, %17
  br i1 %18, label %19, label %56

19:                                               ; preds = %15
  %20 = load ptr, ptr %6, align 8, !tbaa !26
  %21 = load i32, ptr %9, align 4, !tbaa !4
  %22 = sext i32 %21 to i64
  %23 = getelementptr inbounds i32, ptr %20, i64 %22
  %24 = load i32, ptr %23, align 4, !tbaa !4
  store i32 %24, ptr %11, align 4, !tbaa !4
  %25 = load ptr, ptr %8, align 8, !tbaa !35
  %26 = load i32, ptr %11, align 4, !tbaa !4
  %27 = sext i32 %26 to i64
  %28 = getelementptr inbounds %struct.t_atom, ptr %25, i64 %27
  %29 = getelementptr inbounds nuw %struct.t_atom, ptr %28, i32 0, i32 1
  %30 = load float, ptr %29, align 4, !tbaa !37
  store float %30, ptr %13, align 4, !tbaa !11
  store i32 0, ptr %10, align 4, !tbaa !4
  br label %31

31:                                               ; preds = %49, %19
  %32 = load i32, ptr %10, align 4, !tbaa !4
  %33 = icmp slt i32 %32, 3
  br i1 %33, label %34, label %52

34:                                               ; preds = %31
  %35 = load ptr, ptr %7, align 8, !tbaa !28
  %36 = load i32, ptr %11, align 4, !tbaa !4
  %37 = sext i32 %36 to i64
  %38 = getelementptr inbounds [3 x float], ptr %35, i64 %37
  %39 = load i32, ptr %10, align 4, !tbaa !4
  %40 = sext i32 %39 to i64
  %41 = getelementptr inbounds [3 x float], ptr %38, i64 0, i64 %40
  %42 = load float, ptr %41, align 4, !tbaa !11
  %43 = load float, ptr %13, align 4, !tbaa !11
  %44 = load i32, ptr %10, align 4, !tbaa !4
  %45 = sext i32 %44 to i64
  %46 = getelementptr inbounds [3 x float], ptr %12, i64 0, i64 %45
  %47 = load float, ptr %46, align 4, !tbaa !11
  %48 = call float @llvm.fmuladd.f32(float %42, float %43, float %47)
  store float %48, ptr %46, align 4, !tbaa !11
  br label %49

49:                                               ; preds = %34
  %50 = load i32, ptr %10, align 4, !tbaa !4
  %51 = add nsw i32 %50, 1
  store i32 %51, ptr %10, align 4, !tbaa !4
  br label %31, !llvm.loop !41

52:                                               ; preds = %31
  br label %53

53:                                               ; preds = %52
  %54 = load i32, ptr %9, align 4, !tbaa !4
  %55 = add nsw i32 %54, 1
  store i32 %55, ptr %9, align 4, !tbaa !4
  br label %15, !llvm.loop !42

56:                                               ; preds = %15
  %57 = getelementptr inbounds [3 x float], ptr %12, i64 0, i64 0
  %58 = call noundef float @_ZL4normPKf(ptr noundef %57)
  call void @llvm.lifetime.end.p0(i64 4, ptr %13) #14
  call void @llvm.lifetime.end.p0(i64 12, ptr %12) #14
  call void @llvm.lifetime.end.p0(i64 4, ptr %11) #14
  call void @llvm.lifetime.end.p0(i64 4, ptr %10) #14
  call void @llvm.lifetime.end.p0(i64 4, ptr %9) #14
  ret float %58
}