; Function Attrs: mustprogress nofree norecurse nosync nounwind willreturn memory(argmem: read) uwtable
define noundef float @_Z3dipiPKiPA3_KfPK6t_atom(i32 noundef %0, ptr noundef readonly captures(none) %1, ptr noundef readonly captures(none) %2, ptr noundef readonly captures(none) %3) local_unnamed_addr #2 {
  %5 = alloca [3 x float], align 4
  call void @llvm.lifetime.start.p0(i64 12, ptr nonnull %5) #21
  store float 0.000000e+00, ptr %5, align 4, !tbaa !21
  %6 = getelementptr inbounds nuw i8, ptr %5, i64 4
  store float 0.000000e+00, ptr %6, align 4, !tbaa !21
  %7 = getelementptr inbounds nuw i8, ptr %5, i64 8
  store float 0.000000e+00, ptr %7, align 4, !tbaa !21
  %8 = icmp sgt i32 %0, 0
  br i1 %8, label %.lr.ph.preheader, label %._crit_edge

.lr.ph.preheader:                                 ; preds = %4
  %wide.trip.count = zext nneg i32 %0 to i64
  br label %.lr.ph

.lr.ph:                                           ; preds = %.lr.ph.preheader, %20
  %indvars.iv17 = phi i64 [ 0, %.lr.ph.preheader ], [ %indvars.iv.next18, %20 ]
  %9 = getelementptr inbounds nuw i32, ptr %1, i64 %indvars.iv17
  %10 = load i32, ptr %9, align 4, !tbaa !20
  %11 = sext i32 %10 to i64
  %12 = getelementptr inbounds %struct.t_atom, ptr %3, i64 %11, i32 1
  %13 = load float, ptr %12, align 4, !tbaa !25
  br label %14

14:                                               ; preds = %.lr.ph, %14
  %indvars.iv = phi i64 [ 0, %.lr.ph ], [ %indvars.iv.next, %14 ]
  %15 = getelementptr inbounds [3 x float], ptr %2, i64 %11, i64 %indvars.iv
  %16 = load float, ptr %15, align 4, !tbaa !21
  %17 = getelementptr inbounds nuw [3 x float], ptr %5, i64 0, i64 %indvars.iv
  %18 = load float, ptr %17, align 4, !tbaa !21
  %19 = tail call float @llvm.fmuladd.f32(float %16, float %13, float %18)
  store float %19, ptr %17, align 4, !tbaa !21
  %indvars.iv.next = add nuw nsw i64 %indvars.iv, 1
  %exitcond.not = icmp eq i64 %indvars.iv.next, 3
  br i1 %exitcond.not, label %20, label %14, !llvm.loop !29

20:                                               ; preds = %14
  %indvars.iv.next18 = add nuw nsw i64 %indvars.iv17, 1
  %exitcond20.not = icmp eq i64 %indvars.iv.next18, %wide.trip.count
  br i1 %exitcond20.not, label %._crit_edge.loopexit, label %.lr.ph, !llvm.loop !30

._crit_edge.loopexit:                             ; preds = %20
  %.pre = load float, ptr %5, align 4, !tbaa !21
  %.pre21 = load float, ptr %6, align 4, !tbaa !21
  %.pre22 = load float, ptr %7, align 4, !tbaa !21
  br label %._crit_edge

._crit_edge:                                      ; preds = %._crit_edge.loopexit, %4
  %21 = phi float [ %.pre22, %._crit_edge.loopexit ], [ 0.000000e+00, %4 ]
  %22 = phi float [ %.pre21, %._crit_edge.loopexit ], [ 0.000000e+00, %4 ]
  %23 = phi float [ %.pre, %._crit_edge.loopexit ], [ 0.000000e+00, %4 ]
  %24 = fmul float %22, %22
  %25 = tail call float @llvm.fmuladd.f32(float %23, float %23, float %24)
  %26 = tail call noundef float @llvm.fmuladd.f32(float %21, float %21, float %25)
  %sqrt.i = tail call noundef float @llvm.sqrt.f32(float %26)
  call void @llvm.lifetime.end.p0(i64 12, ptr nonnull %5) #21
  ret float %sqrt.i
}